; Function Attrs: mustprogress uwtable
define void @_ZN3nix6Worker6wakeUpESt10shared_ptrINS_4GoalEE(ptr noundef nonnull align 8 dereferenceable(649) %0, ptr nocapture noundef readonly %1) local_unnamed_addr #5 align 2 personality ptr @__gxx_personality_v0 {
  %3 = alloca %"class.std::shared_ptr.84", align 8
  %4 = load ptr, ptr %1, align 8
  tail call void @_ZN3nix4Goal5traceESt17basic_string_viewIcSt11char_traitsIcEE(ptr noundef nonnull align 8 dereferenceable(720) %4, i64 8, ptr nonnull @.str.11)
  %5 = getelementptr inbounds i8, ptr %0, i64 48
  %6 = load ptr, ptr %1, align 8
  store ptr %6, ptr %3, align 8
  %7 = getelementptr inbounds i8, ptr %3, i64 8
  %8 = getelementptr inbounds i8, ptr %1, i64 8
  %9 = load ptr, ptr %8, align 8
  store ptr %9, ptr %7, align 8
  %.not.i.i.i = icmp eq ptr %9, null
  br i1 %.not.i.i.i, label %_ZNSt10shared_ptrIN3nix4GoalEEC2ERKS2_.exit, label %10

10:                                               ; preds = %2
  %11 = getelementptr inbounds i8, ptr %9, i64 8
  %12 = load i8, ptr @__libc_single_threaded, align 1
  %.not.i.i.i.i = icmp eq i8 %12, 0
  br i1 %.not.i.i.i.i, label %16, label %13

13:                                               ; preds = %10
  %14 = load i32, ptr %11, align 4
  %15 = add nsw i32 %14, 1
  store i32 %15, ptr %11, align 4
  br label %_ZNSt10shared_ptrIN3nix4GoalEEC2ERKS2_.exit

16:                                               ; preds = %10
  %17 = atomicrmw volatile add ptr %11, i32 1 acq_rel, align 4
  br label %_ZNSt10shared_ptrIN3nix4GoalEEC2ERKS2_.exit

_ZNSt10shared_ptrIN3nix4GoalEEC2ERKS2_.exit:      ; preds = %2, %13, %16
  invoke void @_ZN3nix14addToWeakGoalsERSt3setISt8weak_ptrINS_4GoalEESt10owner_lessIS3_ESaIS3_EESt10shared_ptrIS2_E(ptr noundef nonnull align 8 dereferenceable(48) %5, ptr noundef nonnull %3)
          to label %18 unwind label %54

18:                                               ; preds = %_ZNSt10shared_ptrIN3nix4GoalEEC2ERKS2_.exit
  %19 = load ptr, ptr %7, align 8
  %.not.i.i.i2 = icmp eq ptr %19, null
  br i1 %.not.i.i.i2, label %_ZNSt10shared_ptrIN3nix4GoalEED2Ev.exit, label %20

20:                                               ; preds = %18
  %21 = getelementptr inbounds i8, ptr %19, i64 8
  %22 = load atomic i64, ptr %21 acquire, align 8
  %23 = icmp eq i64 %22, 4294967297
  %24 = trunc i64 %22 to i32
  br i1 %23, label %25, label %30

25:                                               ; preds = %20
  store i32 0, ptr %21, align 8
  %26 = getelementptr inbounds i8, ptr %19, i64 12
  store i32 0, ptr %26, align 4
  %27 = load ptr, ptr %19, align 8
  %28 = getelementptr inbounds i8, ptr %27, i64 16
  %29 = load ptr, ptr %28, align 8
  call void %29(ptr noundef nonnull align 8 dereferenceable(16) %19) #30
  br label %_ZNSt16_Sp_counted_baseILN9__gnu_cxx12_Lock_policyE2EE24_M_release_last_use_coldEv.exit.sink.split.i.i.i.i

30:                                               ; preds = %20
  %31 = load i8, ptr @__libc_single_threaded, align 1
  %.not.i.i.i.i3 = icmp eq i8 %31, 0
  br i1 %.not.i.i.i.i3, label %34, label %32

32:                                               ; preds = %30
  %33 = add nsw i32 %24, -1
  store i32 %33, ptr %21, align 4
  br label %36

34:                                               ; preds = %30
  %35 = atomicrmw volatile add ptr %21, i32 -1 acq_rel, align 4
  br label %36

36:                                               ; preds = %34, %32
  %.0.i.i.i.i = phi i32 [ %24, %32 ], [ %35, %34 ]
  %37 = icmp eq i32 %.0.i.i.i.i, 1
  br i1 %37, label %38, label %_ZNSt10shared_ptrIN3nix4GoalEED2Ev.exit

38:                                               ; preds = %36
  %39 = load ptr, ptr %19, align 8
  %40 = getelementptr inbounds i8, ptr %39, i64 16
  %41 = load ptr, ptr %40, align 8
  call void %41(ptr noundef nonnull align 8 dereferenceable(16) %19) #30
  %42 = getelementptr inbounds i8, ptr %19, i64 12
  %43 = load i8, ptr @__libc_single_threaded, align 1
  %.not.i.i.i.i.i.i = icmp eq i8 %43, 0
  br i1 %.not.i.i.i.i.i.i, label %47, label %44

44:                                               ; preds = %38
  %45 = load i32, ptr %42, align 4
  %46 = add nsw i32 %45, -1
  store i32 %46, ptr %42, align 4
  br label %49

47:                                               ; preds = %38
  %48 = atomicrmw volatile add ptr %42, i32 -1 acq_rel, align 4
  br label %49

49:                                               ; preds = %47, %44
  %.0.i.i.i.i.i.i = phi i32 [ %45, %44 ], [ %48, %47 ]
  %50 = icmp eq i32 %.0.i.i.i.i.i.i, 1
  br i1 %50, label %_ZNSt16_Sp_counted_baseILN9__gnu_cxx12_Lock_policyE2EE24_M_release_last_use_coldEv.exit.sink.split.i.i.i.i, label %_ZNSt10shared_ptrIN3nix4GoalEED2Ev.exit

_ZNSt16_Sp_counted_baseILN9__gnu_cxx12_Lock_policyE2EE24_M_release_last_use_coldEv.exit.sink.split.i.i.i.i: ; preds = %49, %25
  %51 = load ptr, ptr %19, align 8
  %52 = getelementptr inbounds i8, ptr %51, i64 24
  %53 = load ptr, ptr %52, align 8
  call void %53(ptr noundef nonnull align 8 dereferenceable(16) %19) #30
  br label %_ZNSt10shared_ptrIN3nix4GoalEED2Ev.exit

_ZNSt10shared_ptrIN3nix4GoalEED2Ev.exit:          ; preds = %18, %36, %49, %_ZNSt16_Sp_counted_baseILN9__gnu_cxx12_Lock_policyE2EE24_M_release_last_use_coldEv.exit.sink.split.i.i.i.i
  ret void

54:                                               ; preds = %_ZNSt10shared_ptrIN3nix4GoalEEC2ERKS2_.exit
  %55 = landingpad { ptr, i32 }
          cleanup
  call void @_ZNSt10shared_ptrIN3nix4GoalEED2Ev(ptr noundef nonnull align 8 dereferenceable(16) %3) #30
  resume { ptr, i32 } %55
}